(lp0
(iget_videos
Entry
p1
(dp2
S'domain'
p3
Vyoutube.com
p4
sS'clicked'
p5
I00
sS'name'
p6
Vt3_pfjsp
p7
sS'ups'
p8
I4188
sS'title'
p9
VWater droplets orbiting a needle in space.
p10
sS'url'
p11
Vhttp://www.youtube.com/watch?feature=player_embedded&amp;v=qHrBhgwq__Q
p12
sS'downs'
p13
I2449
sS'permalink'
p14
Vhttp://www.reddit.com/r/videos/comments/pfjsp/water_droplets_orbiting_a_needle_in_space/
p15
sS'thumbnail'
p16
Vhttp://c.thumbs.redditmedia.com/FWhp3DXYtvjLGM6P.jpg
p17
sS'selftext'
p18
V
p19
sS'score'
p20
I1739
sS'over_18'
p21
I00
sS'is_self'
p22
I00
sS'hidden'
p23
I00
sS'content_id'
p24
Vt3_pfjsp
p25
sS'saved'
p26
I00
sS'id'
p27
Vpfjsp
p28
sS'subreddit_id'
p29
Vt5_2qh1e
p30
sba(iget_videos
Entry
p31
(dp32
g3
Vyoutube.com
p33
sg5
I00
sg6
Vt3_pfopf
p34
sg8
I4763
sg9
Vholy shit
p35
sg11
Vhttp://www.youtube.com/watch?feature=player_embedded&amp;v=J7MoWPTeYS4#!
p36
sg13
I3118
sg14
Vhttp://www.reddit.com/r/videos/comments/pfopf/holy_shit/
p37
sg16
Vhttp://f.thumbs.redditmedia.com/31kJFrhOlU9a-bB5.jpg
p38
sg18
g19
sg20
I1645
sS'likes'
p39
I01
sg22
I00
sg23
I00
sg24
Vt3_pfopf
p40
sg26
I00
sg27
Vpfopf
p41
sg29
Vt5_2qh1e
p42
sg21
I00
sba(iget_videos
Entry
p43
(dp44
g3
Vyoutube.com
p45
sg5
I00
sg6
Vt3_pfr2n
p46
sg8
I6222
sg9
VMy hometown weatherman
p47
sg11
Vhttp://www.youtube.com/watch?feature=player_embedded&amp;v=rLEDZmRaOMY
p48
sg13
I4595
sg14
Vhttp://www.reddit.com/r/videos/comments/pfr2n/my_hometown_weatherman/
p49
sg16
Vhttp://f.thumbs.redditmedia.com/LipuDMER0Me0FfWe.jpg
p50
sg18
g19
sg20
I1627
sg21
I00
sg22
I00
sg23
I00
sg24
Vt3_pfr2n
p51
sg26
I00
sg27
Vpfr2n
p52
sg29
Vt5_2qh1e
p53
sba(iget_videos
Entry
p54
(dp55
g3
Vyoutube.com
p56
sg5
I00
sg6
Vt3_pgci2
p57
sg8
I7743
sg9
VLiam Neeson v. Patrick Stewart. Too. Much. AWESOME!
p58
sg11
Vhttp://www.youtube.com/watch?v=5EQ0uVtmw2M&amp;feature=player_embedded
p59
sg13
I6186
sg14
Vhttp://www.reddit.com/r/videos/comments/pgci2/liam_neeson_v_patrick_stewart_too_much_awesome/
p60
sg16
Vhttp://c.thumbs.redditmedia.com/vr6ITMQqFXOpu4Tn.jpg
p61
sg18
g19
sg20
I1557
sg21
I00
sg22
I00
sg23
I00
sg24
Vt3_pgci2
p62
sg26
I00
sg27
Vpgci2
p63
sg29
Vt5_2qh1e
p64
sba(iget_videos
Entry
p65
(dp66
g3
Vyoutube.com
p67
sg5
I00
sg6
Vt3_pfy71
p68
sg8
I4318
sg9
VOldie but goodie...sometimes when I'm having a bad day this fixes everything. 
p69
sg11
Vhttp://www.youtube.com/watch?v=BgmuWFcbQUU
p70
sg13
I2942
sg14
Vhttp://www.reddit.com/r/videos/comments/pfy71/oldie_but_goodiesometimes_when_im_having_a_bad/
p71
sg16
Vhttp://e.thumbs.redditmedia.com/sK3bpegM5wuRZ0EL.jpg
p72
sg18
g19
sg20
I1376
sg21
I00
sg22
I00
sg23
I00
sg24
Vt3_pfy71
p73
sg26
I00
sg27
Vpfy71
p74
sg29
Vt5_2qh1e
p75
sba(iget_videos
Entry
p76
(dp77
g3
Vbbc.co.uk
p78
sg5
I00
sg6
Vt3_pgcnj
p79
sg8
I3168
sg9
VThe smartest chimp in the world?
p80
sg11
Vhttp://www.bbc.co.uk/nature/16832379
p81
sg13
I1802
sg14
Vhttp://www.reddit.com/r/videos/comments/pgcnj/the_smartest_chimp_in_the_world/
p82
sg16
Vhttp://d.thumbs.redditmedia.com/gWghZHziB9Ehg4k3.jpg
p83
sg18
g19
sg20
I1366
sg21
I00
sg22
I00
sg23
I00
sg24
Vt3_pgcnj
p84
sg26
I00
sg27
Vpgcnj
p85
sg29
Vt5_2qh1e
p86
sba(iget_videos
Entry
p87
(dp88
g3
Vyoutube.com
p89
sg5
I00
sg6
Vt3_pflsd
p90
sg8
I1687
sg9
VMan dressed as Fake Speed Camera. Would scare the shit out me!
p91
sg11
Vhttp://www.youtube.com/watch?feature=player_embedded&amp;v=gyiAPLHUfMw
p92
sg13
I719
sg14
Vhttp://www.reddit.com/r/videos/comments/pflsd/man_dressed_as_fake_speed_camera_would_scare_the/
p93
sg16
Vhttp://f.thumbs.redditmedia.com/v9l2Bx7txRyiM3-q.jpg
p94
sg18
g19
sg20
I968
sg21
I00
sg22
I00
sg23
I00
sg24
Vt3_pflsd
p95
sg26
I00
sg27
Vpflsd
p96
sg29
Vt5_2qh1e
p97
sba(iget_videos
Entry
p98
(dp99
g3
Vyoutube.com
p100
sg5
I00
sg6
Vt3_pfk1u
p101
sg8
I2007
sg9
VThis YouTube channel. I have never laughed so hard in my life.
p102
sg11
Vhttp://www.youtube.com/watch?v=v-n1vGeVIXo&amp;feature=relmfu
p103
sg13
I1084
sg14
Vhttp://www.reddit.com/r/videos/comments/pfk1u/this_youtube_channel_i_have_never_laughed_so_hard/
p104
sg16
Vhttp://e.thumbs.redditmedia.com/bd-aUkdpKz9VyjoX.jpg
p105
sg18
g19
sg20
I923
sg21
I00
sg22
I00
sg23
I00
sg24
Vt3_pfk1u
p106
sg26
I00
sg27
Vpfk1u
p107
sg29
Vt5_2qh1e
p108
sba(iget_videos
Entry
p109
(dp110
g3
Vyoutube.com
p111
sg5
I00
sg6
Vt3_pgcdl
p112
sg8
I3164
sg9
VGo Ellen! Go JCPenneys too for not giving in to those hateful old hags at OMM.  I'll be shopping at JCPenneys now.
p113
sg11
Vhttp://www.youtube.com/watch?v=6THHLfrVVD4&amp;feature=colike
p114
sg13
I2100
sg14
Vhttp://www.reddit.com/r/videos/comments/pgcdl/go_ellen_go_jcpenneys_too_for_not_giving_in_to/
p115
sg16
Vhttp://b.thumbs.redditmedia.com/NXwJE9xghL05vAt1.jpg
p116
sg18
g19
sg20
I1064
sg21
I00
sg22
I00
sg23
I00
sg24
Vt3_pgcdl
p117
sg26
I00
sg27
Vpgcdl
p118
sg29
Vt5_2qh1e
p119
sba(iget_videos
Entry
p120
(dp121
g3
Vnews.cnet.com
p122
sg5
I00
sg6
Vt3_pg1f6
p123
sg8
I1301
sg9
VBBC confronts Facebook troll 
p124
sg11
Vhttp://news.cnet.com/8301-17852_3-57372861-71/bbc-confronts-facebook-troll/?tag=mncol;posts
p125
sg13
I532
sg14
Vhttp://www.reddit.com/r/videos/comments/pg1f6/bbc_confronts_facebook_troll/
p126
sg16
Vhttp://d.thumbs.redditmedia.com/TV3AL_TQt1aXiQ0c.jpg
p127
sg18
g19
sg20
I769
sg21
I00
sg22
I00
sg23
I00
sg24
Vt3_pg1f6
p128
sg26
I00
sg27
Vpg1f6
p129
sg29
Vt5_2qh1e
p130
sba.