(lp0
(i__main__
RedditEntry
p1
(dp2
S'domain'
p3
S'youtube.com'
p4
sS'clicked'
p5
I00
sS'name'
p6
S't3_pgv6t'
p7
sS'ups'
p8
I11837
sS'title'
p9
S'This is one of my teachers.  He shaved his beard for the first time in 5 years to do this'
p10
sS'url'
p11
S'http://www.youtube.com/watch?v=aJA-Tfbbtdg&amp;feature=youtu.be'
p12
sS'downs'
p13
I9739
sS'permalink'
p14
S'http://www.reddit.com/r/videos/comments/pgv6t/this_is_one_of_my_teachers_he_shaved_his_beard/'
p15
sS'thumbnail'
p16
S'http://f.thumbs.redditmedia.com/ol2P-0OcuGGmvCo_.jpg'
p17
sS'selftext'
p18
S''
p19
sS'score'
p20
I2098
sS'over_18'
p21
I00
sS'is_self'
p22
I00
sS'hidden'
p23
I00
sS'content_id'
p24
S't3_pgv6t'
p25
sS'saved'
p26
I00
sS'id'
p27
S'pgv6t'
p28
sS'subreddit_id'
p29
S't5_2qh1e'
p30
sba(i__main__
RedditEntry
p31
(dp32
g3
S'youtube.com'
p33
sg5
I00
sg6
S't3_pgci2'
p34
sg8
I8195
sg9
S'Liam Neeson v. Patrick Stewart. Too. Much. AWESOME!'
p35
sg11
S'http://www.youtube.com/watch?v=5EQ0uVtmw2M&amp;feature=player_embedded'
p36
sg13
I6624
sg14
S'http://www.reddit.com/r/videos/comments/pgci2/liam_neeson_v_patrick_stewart_too_much_awesome/'
p37
sg16
S'http://c.thumbs.redditmedia.com/vr6ITMQqFXOpu4Tn.jpg'
p38
sg18
g19
sg20
I1571
sg21
I00
sg22
I00
sg23
I00
sg24
S't3_pgci2'
p39
sg26
I00
sg27
S'pgci2'
p40
sg29
S't5_2qh1e'
p41
sba(i__main__
RedditEntry
p42
(dp43
g3
S'bbc.co.uk'
p44
sg5
I00
sg6
S't3_pgcnj'
p45
sg8
I3669
sg9
S'The smartest chimp in the world?'
p46
sg11
S'http://www.bbc.co.uk/nature/16832379'
p47
sg13
I2194
sg14
S'http://www.reddit.com/r/videos/comments/pgcnj/the_smartest_chimp_in_the_world/'
p48
sg16
S'http://d.thumbs.redditmedia.com/gWghZHziB9Ehg4k3.jpg'
p49
sg18
g19
sg20
I1475
sg21
I00
sg22
I00
sg23
I00
sg24
S't3_pgcnj'
p50
sg26
I00
sg27
S'pgcnj'
p51
sg29
S't5_2qh1e'
p52
sba(i__main__
RedditEntry
p53
(dp54
g3
S'youtube.com'
p55
sg5
I00
sg6
S't3_pgcdl'
p56
sg8
I3477
sg9
S"Go Ellen! Go JCPenneys too for not giving in to those hateful old hags at OMM.  I'll be shopping at JCPenneys now."
p57
sg11
S'http://www.youtube.com/watch?v=6THHLfrVVD4&amp;feature=colike'
p58
sg13
I2395
sg14
S'http://www.reddit.com/r/videos/comments/pgcdl/go_ellen_go_jcpenneys_too_for_not_giving_in_to/'
p59
sg16
S'http://b.thumbs.redditmedia.com/NXwJE9xghL05vAt1.jpg'
p60
sg18
g19
sg20
I1082
sg21
I00
sg22
I00
sg23
I00
sg24
S't3_pgcdl'
p61
sg26
I00
sg27
S'pgcdl'
p62
sg29
S't5_2qh1e'
p63
sba(i__main__
RedditEntry
p64
(dp65
g3
S'youtube.com'
p66
sg5
I00
sg6
S't3_pgxnl'
p67
sg8
I4181
sg9
S'Hardcore fight between a grizzly bear and wolf caught on tape'
p68
sg11
S'http://www.youtube.com/watch?feature=player_embedded&amp;v=vL8x7LcA-Y4'
p69
sg13
I2739
sg14
S'http://www.reddit.com/r/videos/comments/pgxnl/hardcore_fight_between_a_grizzly_bear_and_wolf/'
p70
sg16
S'http://a.thumbs.redditmedia.com/YpjHDeU3GqiOrx40.jpg'
p71
sg18
g19
sg20
I1442
sg21
I00
sg22
I00
sg23
I00
sg24
S't3_pgxnl'
p72
sg26
I00
sg27
S'pgxnl'
p73
sg29
S't5_2qh1e'
p74
sba(i__main__
RedditEntry
p75
(dp76
g3
S'youtube.com'
p77
sg5
I00
sg6
S't3_pghtb'
p78
sg8
I2208
sg9
S'Iron Sky Official Theatrical Trailer [HD]\n'
p79
sg11
S'http://www.youtube.com/watch?v=Py_IndUbcxc'
p80
sg13
I1111
sg14
S'http://www.reddit.com/r/videos/comments/pghtb/iron_sky_official_theatrical_trailer_hd/'
p81
sg16
S'http://c.thumbs.redditmedia.com/aS64ZT3dok79RXxV.jpg'
p82
sg18
g19
sg20
I1097
sg21
I00
sg22
I00
sg23
I00
sg24
S't3_pghtb'
p83
sg26
I00
sg27
S'pghtb'
p84
sg29
S't5_2qh1e'
p85
sba(i__main__
RedditEntry
p86
(dp87
g3
S'news.cnet.com'
p88
sg5
I00
sg6
S't3_pg1f6'
p89
sg8
I1351
sg9
S'BBC confronts Facebook troll '
p90
sg11
S'http://news.cnet.com/8301-17852_3-57372861-71/bbc-confronts-facebook-troll/?tag=mncol;posts'
p91
sg13
I554
sg14
S'http://www.reddit.com/r/videos/comments/pg1f6/bbc_confronts_facebook_troll/'
p92
sg16
S'http://d.thumbs.redditmedia.com/TV3AL_TQt1aXiQ0c.jpg'
p93
sg18
g19
sg20
I797
sg21
I00
sg22
I00
sg23
I00
sg24
S't3_pg1f6'
p94
sg26
I00
sg27
S'pg1f6'
p95
sg29
S't5_2qh1e'
p96
sba(i__main__
RedditEntry
p97
(dp98
g3
S'youtube.com'
p99
sg5
I00
sg6
S't3_pgdi7'
p100
sg8
I756
sg9
S'Started a documentary project about 9 months ago that is about halfway through production.  I would like some outside thoughts and opinions!'
p101
sg11
S'http://www.youtube.com/watch?v=4TqvsSmKSrQ'
p102
sg13
I216
sg14
S'http://www.reddit.com/r/videos/comments/pgdi7/started_a_documentary_project_about_9_months_ago/'
p103
sg16
S'http://a.thumbs.redditmedia.com/MAcXCU6mi7mNK0rl.jpg'
p104
sg18
g19
sg20
I540
sg21
I00
sg22
I00
sg23
I00
sg24
S't3_pgdi7'
p105
sg26
I00
sg27
S'pgdi7'
p106
sg29
S't5_2qh1e'
p107
sba(i__main__
RedditEntry
p108
(dp109
g3
S'youtube.com'
p110
sg5
I00
sg6
S't3_pg70y'
p111
sg8
I545
sg9
S"Awesome Street Performer's Homemade Percussion Kit "
p112
sg11
S'http://www.youtube.com/watch?v=CLYBVCdSqCo'
p113
sg13
I221
sg14
S'http://www.reddit.com/r/videos/comments/pg70y/awesome_street_performers_homemade_percussion_kit/'
p114
sg16
S'http://a.thumbs.redditmedia.com/owPCy3FxQaYG2mDT.jpg'
p115
sg18
g19
sg20
I324
sg21
I00
sg22
I00
sg23
I00
sg24
S't3_pg70y'
p116
sg26
I00
sg27
S'pg70y'
p117
sg29
S't5_2qh1e'
p118
sba(i__main__
RedditEntry
p119
(dp120
g3
S'samharris.org'
p121
sg5
I00
sg6
S't3_pgd8e'
p122
sg8
I469
sg9
S'This Aikido master must be delusional, watch the first vid, then watch the second. '
p123
sg11
S'http://www.samharris.org/blog/item/the-pleasures-of-drowning'
p124
sg13
I109
sg14
S'http://www.reddit.com/r/videos/comments/pgd8e/this_aikido_master_must_be_delusional_watch_the/'
p125
sg16
S'http://a.thumbs.redditmedia.com/XJlwHWOS66syz7oT.jpg'
p126
sg18
g19
sg20
I360
sg21
I00
sg22
I00
sg23
I00
sg24
S't3_pgd8e'
p127
sg26
I00
sg27
S'pgd8e'
p128
sg29
S't5_2qh1e'
p129
sba.